; Function Attrs: mustprogress nounwind uwtable
define internal fastcc void @_ZNK12_GLOBAL__N_115MachineVerifier19report_context_vregEN4llvm8RegisterE(ptr noundef nonnull readonly align 8 captures(none) dereferenceable(1840) %0, i32 %1) unnamed_addr #0 align 2 {
  %3 = alloca %"class.llvm::Printable", align 8
  %4 = tail call noundef nonnull align 8 dereferenceable(96) ptr @_ZN4llvm4errsEv() #18
  %5 = getelementptr inbounds nuw i8, ptr %4, i64 24
  %6 = load ptr, ptr %5, align 8
  %7 = getelementptr inbounds nuw i8, ptr %4, i64 32
  %8 = load ptr, ptr %7, align 8
  %9 = ptrtoint ptr %6 to i64
  %10 = ptrtoint ptr %8 to i64
  %11 = sub i64 %9, %10
  %12 = icmp ult i64 %11, 15
  br i1 %12, label %13, label %15

13:                                               ; preds = %2
  %14 = tail call noundef nonnull align 8 dereferenceable(48) ptr @_ZN4llvm11raw_ostream5writeEPKcm(ptr noundef nonnull align 8 dereferenceable(48) %4, ptr noundef nonnull @.str.351, i64 noundef 15) #18
  br label %_ZN4llvm11raw_ostreamlsEPKc.exit

15:                                               ; preds = %2
  tail call void @llvm.memcpy.p0.p0.i64(ptr noundef nonnull align 1 dereferenceable(15) %8, ptr noundef nonnull align 1 dereferenceable(15) @.str.351, i64 15, i1 false)
  %16 = load ptr, ptr %7, align 8
  %17 = getelementptr inbounds nuw i8, ptr %16, i64 15
  store ptr %17, ptr %7, align 8
  br label %_ZN4llvm11raw_ostreamlsEPKc.exit

_ZN4llvm11raw_ostreamlsEPKc.exit:                 ; preds = %13, %15
  %.0.i.i = phi ptr [ %14, %13 ], [ %4, %15 ]
  %18 = getelementptr inbounds nuw i8, ptr %0, i64 48
  %19 = load ptr, ptr %18, align 8
  call void @_ZN4llvm8printRegENS_8RegisterEPKNS_18TargetRegisterInfoEjPKNS_19MachineRegisterInfoE(ptr dead_on_unwind nonnull writable sret(%"class.llvm::Printable") align 8 %3, i32 %1, ptr noundef %19, i32 noundef 0, ptr noundef null) #18
  %20 = getelementptr inbounds nuw i8, ptr %3, i64 16
  %21 = load ptr, ptr %20, align 8
  %.not.i.i.i = icmp eq ptr %21, null
  br i1 %.not.i.i.i, label %22, label %_ZN4llvmlsERNS_11raw_ostreamERKNS_9PrintableE.exit

22:                                               ; preds = %_ZN4llvm11raw_ostreamlsEPKc.exit
  call void @_ZSt25__throw_bad_function_callv() #19
  unreachable

_ZN4llvmlsERNS_11raw_ostreamERKNS_9PrintableE.exit: ; preds = %_ZN4llvm11raw_ostreamlsEPKc.exit
  %23 = getelementptr inbounds nuw i8, ptr %3, i64 24
  %24 = load ptr, ptr %23, align 8
  call void %24(ptr noundef nonnull align 8 dereferenceable(32) %3, ptr noundef nonnull align 8 dereferenceable(48) %.0.i.i) #18
  %25 = getelementptr inbounds nuw i8, ptr %.0.i.i, i64 32
  %26 = load ptr, ptr %25, align 8
  %27 = getelementptr inbounds nuw i8, ptr %.0.i.i, i64 24
  %28 = load ptr, ptr %27, align 8
  %.not.i = icmp ult ptr %26, %28
  br i1 %.not.i, label %31, label %29

29:                                               ; preds = %_ZN4llvmlsERNS_11raw_ostreamERKNS_9PrintableE.exit
  %30 = call noundef nonnull align 8 dereferenceable(48) ptr @_ZN4llvm11raw_ostream5writeEh(ptr noundef nonnull align 8 dereferenceable(48) %.0.i.i, i8 noundef zeroext 10) #18
  br label %_ZN4llvm11raw_ostreamlsEc.exit

31:                                               ; preds = %_ZN4llvmlsERNS_11raw_ostreamERKNS_9PrintableE.exit
  %32 = getelementptr inbounds nuw i8, ptr %26, i64 1
  store ptr %32, ptr %25, align 8
  store i8 10, ptr %26, align 1
  br label %_ZN4llvm11raw_ostreamlsEc.exit

_ZN4llvm11raw_ostreamlsEc.exit:                   ; preds = %29, %31
  %33 = load ptr, ptr %20, align 8
  %.not.i.i.i2 = icmp eq ptr %33, null
  br i1 %.not.i.i.i2, label %_ZN4llvm9PrintableD2Ev.exit, label %34

34:                                               ; preds = %_ZN4llvm11raw_ostreamlsEc.exit
  %35 = call noundef zeroext i1 %33(ptr noundef nonnull align 8 dereferenceable(32) %3, ptr noundef nonnull align 8 dereferenceable(32) %3, i32 noundef 3) #18
  br label %_ZN4llvm9PrintableD2Ev.exit

_ZN4llvm9PrintableD2Ev.exit:                      ; preds = %_ZN4llvm11raw_ostreamlsEc.exit, %34
  ret void
}